; Function Attrs: nounwind uwtable
define internal ptr @unicode_format(ptr readnone captures(none) %0, ptr noundef %1) #0 {
  %3 = alloca ptr, align 8
  %4 = alloca ptr, align 8
  call void @llvm.lifetime.start.p0(i64 8, ptr nonnull %3) #4
  call void @llvm.lifetime.start.p0(i64 8, ptr nonnull %4) #4
  %5 = call i32 (ptr, ptr, ...) @PyArg_ParseTuple(ptr noundef %1, ptr noundef nonnull @.str.363, ptr noundef nonnull %3, ptr noundef nonnull %4) #4
  %.not = icmp eq i32 %5, 0
  br i1 %.not, label %20, label %6

6:                                                ; preds = %2
  %7 = load ptr, ptr %3, align 8, !tbaa !8
  %8 = call ptr @Py_GetConstantBorrowed(i32 noundef 0) #4
  %9 = icmp eq ptr %7, %8
  br i1 %9, label %10, label %11

10:                                               ; preds = %6
  store ptr null, ptr %3, align 8, !tbaa !8
  br label %11

11:                                               ; preds = %6, %10
  %12 = load ptr, ptr %4, align 8, !tbaa !8
  %13 = call ptr @Py_GetConstantBorrowed(i32 noundef 0) #4
  %14 = icmp eq ptr %12, %13
  br i1 %14, label %15, label %._crit_edge

._crit_edge:                                      ; preds = %11
  %.pre = load ptr, ptr %4, align 8, !tbaa !8
  br label %16

15:                                               ; preds = %11
  store ptr null, ptr %4, align 8, !tbaa !8
  br label %16

16:                                               ; preds = %._crit_edge, %15
  %17 = phi ptr [ %.pre, %._crit_edge ], [ null, %15 ]
  %18 = load ptr, ptr %3, align 8, !tbaa !8
  %19 = call ptr @PyUnicode_Format(ptr noundef %18, ptr noundef %17) #4
  br label %20

20:                                               ; preds = %2, %16
  %.0 = phi ptr [ %19, %16 ], [ null, %2 ]
  call void @llvm.lifetime.end.p0(i64 8, ptr nonnull %4) #4
  call void @llvm.lifetime.end.p0(i64 8, ptr nonnull %3) #4
  ret ptr %.0
}